target datalayout = "e-m:e-p270:32:32-p271:32:32-p272:64:64-i64:64-i128:128-f80:128-n8:16:32:64-S128"
target triple = "x86_64-unknown-linux-gnu"

%"class.icu_75::GenderInfo" = type <{ %"class.icu_75::UObject", i32, [4 x i8] }>
%"class.icu_75::UObject" = type { ptr }

@_ZL5gObjs = internal global ptr null, align 8
@_ZL16gGenderInfoCache = internal global ptr null, align 8
@_ZN6icu_7510GenderInfoC1Ev = unnamed_addr alias void (ptr), ptr @_ZN6icu_7510GenderInfoC2Ev
@_ZN6icu_7510GenderInfoD1Ev = unnamed_addr alias void (ptr), ptr @_ZN6icu_7510GenderInfoD2Ev

; Function Attrs: mustprogress nounwind uwtable
define internal noundef signext i8 @_ZL9U_FAILURE10UErrorCode(i32 noundef %code) #0 {
entry:
  %code.addr = alloca i32, align 4
  store i32 %code, ptr %code.addr, align 4
  %0 = load i32, ptr %code.addr, align 4
  %cmp = icmp sgt i32 %0, 0
  %conv = zext i1 %cmp to i8
  ret i8 %conv
}

; Function Attrs: mustprogress uwtable
define void @_ZN6icu_7520GenderInfo_initCacheER10UErrorCode(ptr noundef nonnull align 4 dereferenceable(4) %status) #1 personality ptr @__gxx_personality_v0 {
entry:
  %status.addr = alloca ptr, align 8
  %saved-rvalue = alloca ptr, align 8
  %cleanup.cond = alloca i1, align 1
  %cond-cleanup.save = alloca ptr, align 8
  %cond-cleanup.save2 = alloca ptr, align 8
  %cleanup.cond3 = alloca i1, align 1
  %exn.slot = alloca ptr, align 8
  %ehselector.slot = alloca i32, align 4
  %i = alloca i32, align 4
  store ptr %status, ptr %status.addr, align 8
  call void @ucln_i18n_registerCleanup_75(i32 noundef 31, ptr noundef @_ZL14gender_cleanupv)
  %0 = load ptr, ptr %status.addr, align 8
  %1 = load i32, ptr %0, align 4
  %call = call noundef signext i8 @_ZL9U_FAILURE10UErrorCode(i32 noundef %1)
  %tobool = icmp ne i8 %call, 0
  br i1 %tobool, label %if.then, label %if.end

if.then:                                          ; preds = %entry
  br label %return

if.end:                                           ; preds = %entry
  %call1 = call noundef ptr @_ZN6icu_757UMemorynaEm(i64 noundef 56) #9
  %new.isnull = icmp eq ptr %call1, null
  store i1 false, ptr %cleanup.cond, align 1
  store i1 false, ptr %cleanup.cond3, align 1
  br i1 %new.isnull, label %new.cont, label %new.notnull

new.notnull:                                      ; preds = %if.end
  store ptr %call1, ptr %saved-rvalue, align 8
  store i1 true, ptr %cleanup.cond, align 1
  store i64 3, ptr %call1, align 8
  %2 = getelementptr inbounds i8, ptr %call1, i64 8
  %arrayctor.end = getelementptr inbounds %"class.icu_75::GenderInfo", ptr %2, i64 3
  br label %arrayctor.loop

arrayctor.loop:                                   ; preds = %invoke.cont, %new.notnull
  %arrayctor.cur = phi ptr [ %2, %new.notnull ], [ %arrayctor.next, %invoke.cont ]
  store ptr %2, ptr %cond-cleanup.save, align 8
  store ptr %arrayctor.cur, ptr %cond-cleanup.save2, align 8
  store i1 true, ptr %cleanup.cond3, align 1
  invoke void @_ZN6icu_7510GenderInfoC1Ev(ptr noundef nonnull align 8 dereferenceable(12) %arrayctor.cur)
          to label %invoke.cont unwind label %lpad

invoke.cont:                                      ; preds = %arrayctor.loop
  %arrayctor.next = getelementptr inbounds %"class.icu_75::GenderInfo", ptr %arrayctor.cur, i64 1
  %arrayctor.done = icmp eq ptr %arrayctor.next, %arrayctor.end
  br i1 %arrayctor.done, label %arrayctor.cont, label %arrayctor.loop

arrayctor.cont:                                   ; preds = %invoke.cont
  br label %new.cont

new.cont:                                         ; preds = %arrayctor.cont, %if.end
  %3 = phi ptr [ %2, %arrayctor.cont ], [ null, %if.end ]
  store ptr %3, ptr @_ZL5gObjs, align 8
  %4 = load ptr, ptr @_ZL5gObjs, align 8
  %cmp = icmp eq ptr %4, null
  br i1 %cmp, label %if.then8, label %if.end9

if.then8:                                         ; preds = %new.cont
  %5 = load ptr, ptr %status.addr, align 8
  store i32 7, ptr %5, align 4
  br label %return

lpad:                                             ; preds = %arrayctor.loop
  %6 = landingpad { ptr, i32 }
          cleanup
  %7 = extractvalue { ptr, i32 } %6, 0
  store ptr %7, ptr %exn.slot, align 8
  %8 = extractvalue { ptr, i32 } %6, 1
  store i32 %8, ptr %ehselector.slot, align 4
  %cleanup.is_active = load i1, ptr %cleanup.cond3, align 1
  br i1 %cleanup.is_active, label %cleanup.action, label %cleanup.done

cleanup.action:                                   ; preds = %lpad
  %9 = load ptr, ptr %cond-cleanup.save, align 8
  %10 = load ptr, ptr %cond-cleanup.save2, align 8
  %arraydestroy.isempty = icmp eq ptr %9, %10
  br i1 %arraydestroy.isempty, label %arraydestroy.done4, label %arraydestroy.body

arraydestroy.body:                                ; preds = %arraydestroy.body, %cleanup.action
  %arraydestroy.elementPast = phi ptr [ %10, %cleanup.action ], [ %arraydestroy.element, %arraydestroy.body ]
  %arraydestroy.element = getelementptr inbounds %"class.icu_75::GenderInfo", ptr %arraydestroy.elementPast, i64 -1
  call void @_ZN6icu_7510GenderInfoD1Ev(ptr noundef nonnull align 8 dereferenceable(12) %arraydestroy.element) #9
  %arraydestroy.done = icmp eq ptr %arraydestroy.element, %9
  br i1 %arraydestroy.done, label %arraydestroy.done4, label %arraydestroy.body

arraydestroy.done4:                               ; preds = %arraydestroy.body, %cleanup.action
  br label %cleanup.done

cleanup.done:                                     ; preds = %arraydestroy.done4, %lpad
  %cleanup.is_active5 = load i1, ptr %cleanup.cond, align 1
  br i1 %cleanup.is_active5, label %cleanup.action6, label %cleanup.done7

cleanup.action6:                                  ; preds = %cleanup.done
  %11 = load ptr, ptr %saved-rvalue, align 8
  call void @_ZN6icu_757UMemorydaEPv(ptr noundef %11) #9
  br label %cleanup.done7

cleanup.done7:                                    ; preds = %cleanup.action6, %cleanup.done
  br label %eh.resume

if.end9:                                          ; preds = %new.cont
  store i32 0, ptr %i, align 4
  br label %for.cond

for.cond:                                         ; preds = %for.inc, %if.end9
  %12 = load i32, ptr %i, align 4
  %cmp10 = icmp slt i32 %12, 3
  br i1 %cmp10, label %for.body, label %for.end

for.body:                                         ; preds = %for.cond
  %13 = load i32, ptr %i, align 4
  %14 = load ptr, ptr @_ZL5gObjs, align 8
  %15 = load i32, ptr %i, align 4
  %idxprom = sext i32 %15 to i64
  %arrayidx = getelementptr inbounds %"class.icu_75::GenderInfo", ptr %14, i64 %idxprom
  %_style = getelementptr inbounds %"class.icu_75::GenderInfo", ptr %arrayidx, i32 0, i32 1
  store i32 %13, ptr %_style, align 8
  br label %for.inc

for.inc:                                          ; preds = %for.body
  %16 = load i32, ptr %i, align 4
  %inc = add nsw i32 %16, 1
  store i32 %inc, ptr %i, align 4
  br label %for.cond, !llvm.loop !4

for.end:                                          ; preds = %for.cond
  %17 = load ptr, ptr %status.addr, align 8
  %call11 = call ptr @uhash_open_75(ptr noundef @uhash_hashChars_75, ptr noundef @uhash_compareChars_75, ptr noundef null, ptr noundef %17)
  store ptr %call11, ptr @_ZL16gGenderInfoCache, align 8
  %18 = load ptr, ptr %status.addr, align 8
  %19 = load i32, ptr %18, align 4
  %call12 = call noundef signext i8 @_ZL9U_FAILURE10UErrorCode(i32 noundef %19)
  %tobool13 = icmp ne i8 %call12, 0
  br i1 %tobool13, label %if.then14, label %if.end22

if.then14:                                        ; preds = %for.end
  %20 = load ptr, ptr @_ZL5gObjs, align 8
  %isnull = icmp eq ptr %20, null
  br i1 %isnull, label %delete.end21, label %delete.notnull

delete.notnull:                                   ; preds = %if.then14
  %21 = getelementptr inbounds i8, ptr %20, i64 -8
  %22 = load i64, ptr %21, align 8
  %delete.end = getelementptr inbounds %"class.icu_75::GenderInfo", ptr %20, i64 %22
  %arraydestroy.isempty15 = icmp eq ptr %20, %delete.end
  br i1 %arraydestroy.isempty15, label %arraydestroy.done20, label %arraydestroy.body16

arraydestroy.body16:                              ; preds = %arraydestroy.body16, %delete.notnull
  %arraydestroy.elementPast17 = phi ptr [ %delete.end, %delete.notnull ], [ %arraydestroy.element18, %arraydestroy.body16 ]
  %arraydestroy.element18 = getelementptr inbounds %"class.icu_75::GenderInfo", ptr %arraydestroy.elementPast17, i64 -1
  call void @_ZN6icu_7510GenderInfoD1Ev(ptr noundef nonnull align 8 dereferenceable(12) %arraydestroy.element18) #9
  %arraydestroy.done19 = icmp eq ptr %arraydestroy.element18, %20
  br i1 %arraydestroy.done19, label %arraydestroy.done20, label %arraydestroy.body16

arraydestroy.done20:                              ; preds = %arraydestroy.body16, %delete.notnull
  call void @_ZN6icu_757UMemorydaEPv(ptr noundef %21) #9
  br label %delete.end21

delete.end21:                                     ; preds = %arraydestroy.done20, %if.then14
  br label %return

if.end22:                                         ; preds = %for.end
  %23 = load ptr, ptr @_ZL16gGenderInfoCache, align 8
  %call23 = call ptr @uhash_setKeyDeleter_75(ptr noundef %23, ptr noundef @uprv_free_75)
  br label %return

return:                                           ; preds = %if.end22, %delete.end21, %if.then8, %if.then
  ret void

eh.resume:                                        ; preds = %cleanup.done7
  %exn = load ptr, ptr %exn.slot, align 8
  %sel = load i32, ptr %ehselector.slot, align 4
  %lpad.val = insertvalue { ptr, i32 } poison, ptr %exn, 0
  %lpad.val24 = insertvalue { ptr, i32 } %lpad.val, i32 %sel, 1
  resume { ptr, i32 } %lpad.val24
}