; Function Attrs: mustprogress uwtable
define void @_ZN6icu_7520GenderInfo_initCacheER10UErrorCode(ptr noundef nonnull align 4 dereferenceable(4) %status) local_unnamed_addr #1 personality ptr @__gxx_personality_v0 {
entry:
  tail call void @ucln_i18n_registerCleanup_75(i32 noundef 31, ptr noundef nonnull @_ZL14gender_cleanupv)
  %0 = load i32, ptr %status, align 4
  %cmp.i = icmp slt i32 %0, 1
  br i1 %cmp.i, label %if.end, label %return

if.end:                                           ; preds = %entry
  %call1 = tail call noundef ptr @_ZN6icu_757UMemorynaEm(i64 noundef 56) #13
  %new.isnull = icmp eq ptr %call1, null
  br i1 %new.isnull, label %if.then8, label %new.notnull

new.notnull:                                      ; preds = %if.end
  store i64 3, ptr %call1, align 8
  %.ptr = getelementptr inbounds i8, ptr %call1, i64 8
  br label %arrayctor.loop

arrayctor.loop:                                   ; preds = %invoke.cont, %new.notnull
  %arrayctor.cur.idx = phi i64 [ 8, %new.notnull ], [ %arrayctor.cur.add, %invoke.cont ]
  %arrayctor.cur.ptr.ptr = getelementptr inbounds i8, ptr %call1, i64 %arrayctor.cur.idx
  invoke void @_ZN6icu_7510GenderInfoC1Ev(ptr noundef nonnull align 8 dereferenceable(12) %arrayctor.cur.ptr.ptr)
          to label %invoke.cont unwind label %lpad

invoke.cont:                                      ; preds = %arrayctor.loop
  %arrayctor.cur.add = add nuw nsw i64 %arrayctor.cur.idx, 16
  %arrayctor.done = icmp eq i64 %arrayctor.cur.add, 56
  br i1 %arrayctor.done, label %new.cont, label %arrayctor.loop

new.cont:                                         ; preds = %invoke.cont
  store ptr %.ptr, ptr @_ZL5gObjs, align 8
  br label %for.body

if.then8:                                         ; preds = %if.end
  store ptr null, ptr @_ZL5gObjs, align 8
  store i32 7, ptr %status, align 4
  br label %return

lpad:                                             ; preds = %arrayctor.loop
  %1 = landingpad { ptr, i32 }
          cleanup
  %arraydestroy.isempty = icmp eq i64 %arrayctor.cur.idx, 8
  br i1 %arraydestroy.isempty, label %cleanup.action6, label %arraydestroy.body

arraydestroy.body:                                ; preds = %lpad, %arraydestroy.body
  %arraydestroy.elementPast.idx = phi i64 [ %arraydestroy.elementPast.add, %arraydestroy.body ], [ %arrayctor.cur.idx, %lpad ]
  %arraydestroy.elementPast.add = add nsw i64 %arraydestroy.elementPast.idx, -16
  %arraydestroy.element.ptr = getelementptr inbounds i8, ptr %call1, i64 %arraydestroy.elementPast.add
  tail call void @_ZN6icu_7510GenderInfoD1Ev(ptr noundef nonnull align 8 dereferenceable(12) %arraydestroy.element.ptr) #13
  %arraydestroy.done = icmp eq i64 %arraydestroy.elementPast.add, 8
  br i1 %arraydestroy.done, label %cleanup.action6, label %arraydestroy.body

cleanup.action6:                                  ; preds = %arraydestroy.body, %lpad
  tail call void @_ZN6icu_757UMemorydaEPv(ptr noundef nonnull %call1) #13
  resume { ptr, i32 } %1

for.body:                                         ; preds = %new.cont, %for.body
  %indvars.iv = phi i64 [ 0, %new.cont ], [ %indvars.iv.next, %for.body ]
  %_style = getelementptr inbounds %"class.icu_75::GenderInfo", ptr %.ptr, i64 %indvars.iv, i32 1
  %2 = trunc i64 %indvars.iv to i32
  store i32 %2, ptr %_style, align 8
  %indvars.iv.next = add nuw nsw i64 %indvars.iv, 1
  %exitcond.not = icmp eq i64 %indvars.iv.next, 3
  br i1 %exitcond.not, label %for.end, label %for.body, !llvm.loop !4

for.end:                                          ; preds = %for.body
  %call11 = tail call ptr @uhash_open_75(ptr noundef nonnull @uhash_hashChars_75, ptr noundef nonnull @uhash_compareChars_75, ptr noundef null, ptr noundef nonnull %status)
  store ptr %call11, ptr @_ZL16gGenderInfoCache, align 8
  %3 = load i32, ptr %status, align 4
  %cmp.i7 = icmp slt i32 %3, 1
  br i1 %cmp.i7, label %if.end22, label %if.then14

if.then14:                                        ; preds = %for.end
  %4 = load ptr, ptr @_ZL5gObjs, align 8
  %isnull = icmp eq ptr %4, null
  br i1 %isnull, label %return, label %delete.notnull

delete.notnull:                                   ; preds = %if.then14
  %5 = getelementptr inbounds i8, ptr %4, i64 -8
  %6 = load i64, ptr %5, align 8
  %arraydestroy.isempty15 = icmp eq i64 %6, 0
  br i1 %arraydestroy.isempty15, label %arraydestroy.done20, label %arraydestroy.body16.preheader

arraydestroy.body16.preheader:                    ; preds = %delete.notnull
  %delete.end = getelementptr inbounds %"class.icu_75::GenderInfo", ptr %4, i64 %6
  br label %arraydestroy.body16

arraydestroy.body16:                              ; preds = %arraydestroy.body16.preheader, %arraydestroy.body16
  %arraydestroy.elementPast17 = phi ptr [ %arraydestroy.element18, %arraydestroy.body16 ], [ %delete.end, %arraydestroy.body16.preheader ]
  %arraydestroy.element18 = getelementptr inbounds i8, ptr %arraydestroy.elementPast17, i64 -16
  tail call void @_ZN6icu_7510GenderInfoD1Ev(ptr noundef nonnull align 8 dereferenceable(12) %arraydestroy.element18) #13
  %arraydestroy.done19 = icmp eq ptr %arraydestroy.element18, %4
  br i1 %arraydestroy.done19, label %arraydestroy.done20, label %arraydestroy.body16

arraydestroy.done20:                              ; preds = %arraydestroy.body16, %delete.notnull
  tail call void @_ZN6icu_757UMemorydaEPv(ptr noundef nonnull %5) #13
  br label %return

if.end22:                                         ; preds = %for.end
  %call23 = tail call ptr @uhash_setKeyDeleter_75(ptr noundef %call11, ptr noundef nonnull @uprv_free_75)
  br label %return

return:                                           ; preds = %if.then14, %arraydestroy.done20, %entry, %if.end22, %if.then8
  ret void
}